target datalayout = "e-m:e-p270:32:32-p271:32:32-p272:64:64-i64:64-i128:128-f80:128-n8:16:32:64-S128"
target triple = "x86_64-pc-linux-gnu"

%struct.Ivy_Man_t_ = type { ptr, ptr, ptr, ptr, ptr, %struct.Ivy_Obj_t_, [8 x i32], i32, i32, ptr, i32, i32, i32, i32, ptr, i32, ptr, ptr, ptr, i32, ptr, ptr, ptr, i64, i64 }
%struct.Ivy_Obj_t_ = type { i32, i32, i32, i32, ptr, ptr, ptr, ptr, ptr, ptr, ptr, ptr }
%struct.Vec_Ptr_t_ = type { i32, i32, ptr }

; Function Attrs: nounwind uwtable
define internal ptr @Ivy_Regular(ptr noundef %0) #0 {
  %2 = alloca ptr, align 8
  store ptr %0, ptr %2, align 8
  %3 = load ptr, ptr %2, align 8
  %4 = ptrtoint ptr %3 to i64
  %5 = and i64 %4, -2
  %6 = inttoptr i64 %5 to ptr
  ret ptr %6
}

; Function Attrs: nounwind uwtable
define internal ptr @Ivy_ObjFanin0(ptr noundef %0) #0 {
  %2 = alloca ptr, align 8
  store ptr %0, ptr %2, align 8
  %3 = load ptr, ptr %2, align 8
  %4 = getelementptr inbounds %struct.Ivy_Obj_t_, ptr %3, i32 0, i32 4
  %5 = load ptr, ptr %4, align 8
  %6 = call ptr @Ivy_Regular(ptr noundef %5)
  ret ptr %6
}

; Function Attrs: nounwind uwtable
define internal i32 @Ivy_ObjIsCo(ptr noundef %0) #0 {
  %2 = alloca ptr, align 8
  store ptr %0, ptr %2, align 8
  %3 = load ptr, ptr %2, align 8
  %4 = getelementptr inbounds %struct.Ivy_Obj_t_, ptr %3, i32 0, i32 2
  %5 = load i32, ptr %4, align 8
  %6 = and i32 %5, 15
  %7 = icmp eq i32 %6, 2
  br i1 %7, label %14, label %8

8:                                                ; preds = %1
  %9 = load ptr, ptr %2, align 8
  %10 = getelementptr inbounds %struct.Ivy_Obj_t_, ptr %9, i32 0, i32 2
  %11 = load i32, ptr %10, align 8
  %12 = and i32 %11, 15
  %13 = icmp eq i32 %12, 4
  br label %14

14:                                               ; preds = %8, %1
  %15 = phi i1 [ true, %1 ], [ %13, %8 ]
  %16 = zext i1 %15 to i32
  ret i32 %16
}

; Function Attrs: nounwind uwtable
define internal ptr @Vec_PtrEntry(ptr noundef %0, i32 noundef %1) #0 {
  %3 = alloca ptr, align 8
  %4 = alloca i32, align 4
  store ptr %0, ptr %3, align 8
  store i32 %1, ptr %4, align 4
  %5 = load ptr, ptr %3, align 8
  %6 = getelementptr inbounds %struct.Vec_Ptr_t_, ptr %5, i32 0, i32 2
  %7 = load ptr, ptr %6, align 8
  %8 = load i32, ptr %4, align 4
  %9 = sext i32 %8 to i64
  %10 = getelementptr inbounds ptr, ptr %7, i64 %9
  %11 = load ptr, ptr %10, align 8
  ret ptr %11
}

; Function Attrs: nounwind uwtable
define internal i32 @Vec_PtrSize(ptr noundef %0) #0 {
  %2 = alloca ptr, align 8
  store ptr %0, ptr %2, align 8
  %3 = load ptr, ptr %2, align 8
  %4 = getelementptr inbounds %struct.Vec_Ptr_t_, ptr %3, i32 0, i32 1
  %5 = load i32, ptr %4, align 4
  ret i32 %5
}

; Function Attrs: nounwind uwtable
define void @Ivy_ManResetLevels(ptr noundef %0) #0 {
  %2 = alloca ptr, align 8
  %3 = alloca ptr, align 8
  %4 = alloca i32, align 4
  store ptr %0, ptr %2, align 8
  store i32 0, ptr %4, align 4
  br label %5

5:                                                ; preds = %31, %1
  %6 = load i32, ptr %4, align 4
  %7 = load ptr, ptr %2, align 8
  %8 = getelementptr inbounds %struct.Ivy_Man_t_, ptr %7, i32 0, i32 3
  %9 = load ptr, ptr %8, align 8
  %10 = call i32 @Vec_PtrSize(ptr noundef %9)
  %11 = icmp slt i32 %6, %10
  br i1 %11, label %12, label %18

12:                                               ; preds = %5
  %13 = load ptr, ptr %2, align 8
  %14 = getelementptr inbounds %struct.Ivy_Man_t_, ptr %13, i32 0, i32 3
  %15 = load ptr, ptr %14, align 8
  %16 = load i32, ptr %4, align 4
  %17 = call ptr @Vec_PtrEntry(ptr noundef %15, i32 noundef %16)
  store ptr %17, ptr %3, align 8
  br label %18

18:                                               ; preds = %12, %5
  %19 = phi i1 [ false, %5 ], [ true, %12 ]
  br i1 %19, label %20, label %34

20:                                               ; preds = %18
  %21 = load ptr, ptr %3, align 8
  %22 = icmp eq ptr %21, null
  br i1 %22, label %23, label %24

23:                                               ; preds = %20
  br label %30

24:                                               ; preds = %20
  %25 = load ptr, ptr %3, align 8
  %26 = getelementptr inbounds %struct.Ivy_Obj_t_, ptr %25, i32 0, i32 2
  %27 = load i32, ptr %26, align 8
  %28 = and i32 %27, 2047
  %29 = or i32 %28, 0
  store i32 %29, ptr %26, align 8
  br label %30

30:                                               ; preds = %24, %23
  br label %31

31:                                               ; preds = %30
  %32 = load i32, ptr %4, align 4
  %33 = add nsw i32 %32, 1
  store i32 %33, ptr %4, align 4
  br label %5, !llvm.loop !18

34:                                               ; preds = %18
  store i32 0, ptr %4, align 4
  br label %35

35:                                               ; preds = %65, %34
  %36 = load i32, ptr %4, align 4
  %37 = load ptr, ptr %2, align 8
  %38 = getelementptr inbounds %struct.Ivy_Man_t_, ptr %37, i32 0, i32 3
  %39 = load ptr, ptr %38, align 8
  %40 = call i32 @Vec_PtrSize(ptr noundef %39)
  %41 = icmp slt i32 %36, %40
  br i1 %41, label %42, label %48

42:                                               ; preds = %35
  %43 = load ptr, ptr %2, align 8
  %44 = getelementptr inbounds %struct.Ivy_Man_t_, ptr %43, i32 0, i32 3
  %45 = load ptr, ptr %44, align 8
  %46 = load i32, ptr %4, align 4
  %47 = call ptr @Vec_PtrEntry(ptr noundef %45, i32 noundef %46)
  store ptr %47, ptr %3, align 8
  br label %48

48:                                               ; preds = %42, %35
  %49 = phi i1 [ false, %35 ], [ true, %42 ]
  br i1 %49, label %50, label %68

50:                                               ; preds = %48
  %51 = load ptr, ptr %3, align 8
  %52 = icmp eq ptr %51, null
  br i1 %52, label %53, label %54

53:                                               ; preds = %50
  br label %64

54:                                               ; preds = %50
  %55 = load ptr, ptr %3, align 8
  %56 = call i32 @Ivy_ObjIsCo(ptr noundef %55)
  %57 = icmp ne i32 %56, 0
  br i1 %57, label %59, label %58

58:                                               ; preds = %54
  br label %63

59:                                               ; preds = %54
  %60 = load ptr, ptr %3, align 8
  %61 = call ptr @Ivy_ObjFanin0(ptr noundef %60)
  %62 = call i32 @Ivy_ManResetLevels_rec(ptr noundef %61)
  br label %63

63:                                               ; preds = %59, %58
  br label %64

64:                                               ; preds = %63, %53
  br label %65

65:                                               ; preds = %64
  %66 = load i32, ptr %4, align 4
  %67 = add nsw i32 %66, 1
  store i32 %67, ptr %4, align 4
  br label %35, !llvm.loop !19

68:                                               ; preds = %48
  ret void
}