; Function Attrs: nofree nosync nounwind memory(readwrite, inaccessiblemem: none) uwtable
define void @Ivy_ManResetLevels(ptr noundef readonly captures(none) %0) local_unnamed_addr #5 {
  %2 = getelementptr inbounds nuw i8, ptr %0, i64 24
  %3 = load ptr, ptr %2, align 8
  %4 = getelementptr i8, ptr %3, i64 4
  %.val1825 = load i32, ptr %4, align 4
  %5 = icmp sgt i32 %.val1825, 0
  br i1 %5, label %.lr.ph, label %.critedge2

.critedge.preheader:                              ; preds = %16
  %6 = icmp sgt i32 %.val18, 0
  br i1 %6, label %.lr.ph29, label %.critedge2

.lr.ph:                                           ; preds = %1, %16
  %7 = phi ptr [ %17, %16 ], [ %3, %1 ]
  %indvars.iv = phi i64 [ %indvars.iv.next, %16 ], [ 0, %1 ]
  %8 = getelementptr i8, ptr %7, i64 8
  %.val20 = load ptr, ptr %8, align 8
  %9 = getelementptr inbounds nuw ptr, ptr %.val20, i64 %indvars.iv
  %10 = load ptr, ptr %9, align 8
  %11 = icmp eq ptr %10, null
  br i1 %11, label %16, label %12

12:                                               ; preds = %.lr.ph
  %13 = getelementptr inbounds nuw i8, ptr %10, i64 8
  %14 = load i32, ptr %13, align 8
  %15 = and i32 %14, 2047
  store i32 %15, ptr %13, align 8
  %.pre = load ptr, ptr %2, align 8
  br label %16

16:                                               ; preds = %12, %.lr.ph
  %17 = phi ptr [ %.pre, %12 ], [ %7, %.lr.ph ]
  %indvars.iv.next = add nuw nsw i64 %indvars.iv, 1
  %18 = getelementptr i8, ptr %17, i64 4
  %.val18 = load i32, ptr %18, align 4
  %19 = sext i32 %.val18 to i64
  %20 = icmp slt i64 %indvars.iv.next, %19
  br i1 %20, label %.lr.ph, label %.critedge.preheader, !llvm.loop !18

.lr.ph29:                                         ; preds = %.critedge.preheader, %.critedge
  %21 = phi ptr [ %35, %.critedge ], [ %17, %.critedge.preheader ]
  %indvars.iv31 = phi i64 [ %indvars.iv.next32, %.critedge ], [ 0, %.critedge.preheader ]
  %22 = getelementptr i8, ptr %21, i64 8
  %.val19 = load ptr, ptr %22, align 8
  %23 = getelementptr inbounds nuw ptr, ptr %.val19, i64 %indvars.iv31
  %24 = load ptr, ptr %23, align 8
  %25 = icmp eq ptr %24, null
  br i1 %25, label %.critedge, label %26

26:                                               ; preds = %.lr.ph29
  %27 = getelementptr i8, ptr %24, i64 8
  %.val22 = load i32, ptr %27, align 8
  %28 = and i32 %.val22, 15
  switch i32 %28, label %.critedge [
    i32 4, label %29
    i32 2, label %29
  ]

29:                                               ; preds = %26, %26
  %30 = getelementptr i8, ptr %24, i64 16
  %.val21 = load ptr, ptr %30, align 8
  %31 = ptrtoint ptr %.val21 to i64
  %32 = and i64 %31, -2
  %33 = inttoptr i64 %32 to ptr
  %34 = tail call i32 @Ivy_ManResetLevels_rec(ptr noundef %33)
  %.pre35 = load ptr, ptr %2, align 8
  br label %.critedge

.critedge:                                        ; preds = %26, %.lr.ph29, %29
  %35 = phi ptr [ %21, %26 ], [ %21, %.lr.ph29 ], [ %.pre35, %29 ]
  %indvars.iv.next32 = add nuw nsw i64 %indvars.iv31, 1
  %36 = getelementptr i8, ptr %35, i64 4
  %.val = load i32, ptr %36, align 4
  %37 = sext i32 %.val to i64
  %38 = icmp slt i64 %indvars.iv.next32, %37
  br i1 %38, label %.lr.ph29, label %.critedge2, !llvm.loop !19

.critedge2:                                       ; preds = %.critedge, %1, %.critedge.preheader
  ret void
}